; Function Attrs: nounwind uwtable
define hidden void @_mi_fprintf(ptr noundef readonly %0, ptr noundef %1, ptr noundef %2, ...) local_unnamed_addr #1 {
  %4 = alloca [512 x i8], align 16
  %5 = alloca [1 x %struct.__va_list_tag], align 16
  call void @llvm.lifetime.start.p0(i64 24, ptr nonnull %5) #18
  call void @llvm.va_start.p0(ptr nonnull %5)
  call void @llvm.lifetime.start.p0(i64 512, ptr nonnull %4) #18
  %6 = icmp eq ptr %2, null
  br i1 %6, label %mi_vfprintf.exit, label %7

7:                                                ; preds = %3
  %8 = call fastcc noundef zeroext i1 @mi_recurse_enter_prim() #17
  br i1 %8, label %9, label %mi_vfprintf.exit

9:                                                ; preds = %7
  call void @_mi_vsnprintf(ptr noundef nonnull %4, i64 noundef 511, ptr noundef nonnull %2, ptr noundef nonnull %5) #16
  call fastcc void @mi_recurse_exit_prim() #17
  %10 = icmp eq ptr %0, null
  %11 = load ptr, ptr @stdout, align 8
  %12 = icmp eq ptr %0, %11
  %or.cond.i.i = select i1 %10, i1 true, i1 %12
  %13 = load ptr, ptr @stderr, align 8
  %14 = icmp eq ptr %0, %13
  %or.cond17.i.i = select i1 %or.cond.i.i, i1 true, i1 %14
  br i1 %or.cond17.i.i, label %15, label %23

15:                                               ; preds = %9
  %16 = call fastcc noundef zeroext i1 @mi_recurse_enter_prim() #17
  br i1 %16, label %17, label %mi_vfprintf.exit

17:                                               ; preds = %15
  %18 = load atomic i64, ptr @mi_out_arg acquire, align 8
  %19 = inttoptr i64 %18 to ptr
  %20 = load volatile ptr, ptr @mi_out_default, align 8, !tbaa !6
  %21 = icmp eq ptr %20, null
  %22 = select i1 %21, ptr @mi_out_buf, ptr %20
  call void %22(ptr noundef nonnull %4, ptr noundef %19) #16
  call fastcc void @mi_recurse_exit_prim() #17
  br label %mi_vfprintf.exit

23:                                               ; preds = %9
  call void %0(ptr noundef nonnull %4, ptr noundef %1) #16
  br label %mi_vfprintf.exit

mi_vfprintf.exit:                                 ; preds = %3, %7, %15, %17, %23
  call void @llvm.lifetime.end.p0(i64 512, ptr nonnull %4) #18
  call void @llvm.va_end.p0(ptr nonnull %5)
  call void @llvm.lifetime.end.p0(i64 24, ptr nonnull %5) #18
  ret void
}